target datalayout = "e-m:e-p270:32:32-p271:32:32-p272:64:64-i64:64-i128:128-f80:128-n8:16:32:64-S128"
target triple = "x86_64-pc-linux-gnu"

%class.Node = type <{ ptr, ptr, ptr, i32, i32, i32, i32, i32, i32, i32, [4 x i8] }>

; Function Attrs: mustprogress nounwind uwtable
define linkonce_odr hidden noundef ptr @_ZNK4Node13as_InitializeEv(ptr noundef nonnull align 8 dereferenceable(52) %0) #1 comdat align 2 {
  %2 = alloca ptr, align 8
  store ptr %0, ptr %2, align 8
  %3 = load ptr, ptr %2, align 8
  ret ptr %3
}

; Function Attrs: mustprogress nounwind uwtable
define linkonce_odr hidden noundef zeroext i1 @_ZNK4Node13is_InitializeEv(ptr noundef nonnull align 8 dereferenceable(52) %0) #1 comdat align 2 {
  %2 = alloca ptr, align 8
  store ptr %0, ptr %2, align 8
  %3 = load ptr, ptr %2, align 8
  %4 = getelementptr inbounds %class.Node, ptr %3, i32 0, i32 8
  %5 = load i32, ptr %4, align 4
  %6 = and i32 %5, 63
  %7 = icmp eq i32 %6, 49
  ret i1 %7
}

; Function Attrs: mustprogress nounwind uwtable
define linkonce_odr hidden noundef zeroext i1 @_ZNK4Node7is_ProjEv(ptr noundef nonnull align 8 dereferenceable(52) %0) #1 comdat align 2 {
  %2 = alloca ptr, align 8
  store ptr %0, ptr %2, align 8
  %3 = load ptr, ptr %2, align 8
  %4 = getelementptr inbounds %class.Node, ptr %3, i32 0, i32 8
  %5 = load i32, ptr %4, align 4
  %6 = and i32 %5, 15
  %7 = icmp eq i32 %6, 8
  ret i1 %7
}

; Function Attrs: mustprogress nounwind uwtable
define linkonce_odr hidden noundef ptr @_ZNK4Node2inEj(ptr noundef nonnull align 8 dereferenceable(52) %0, i32 noundef %1) #1 comdat align 2 {
  %3 = alloca ptr, align 8
  %4 = alloca i32, align 4
  store ptr %0, ptr %3, align 8
  store i32 %1, ptr %4, align 4
  %5 = load ptr, ptr %3, align 8
  %6 = getelementptr inbounds %class.Node, ptr %5, i32 0, i32 1
  %7 = load ptr, ptr %6, align 8
  %8 = load i32, ptr %4, align 4
  %9 = zext i32 %8 to i64
  %10 = getelementptr inbounds ptr, ptr %7, i64 %9
  %11 = load ptr, ptr %10, align 8
  ret ptr %11
}

; Function Attrs: mustprogress nounwind uwtable
define hidden noundef zeroext i1 @_ZNK14G1BarrierSetC226g1_can_remove_post_barrierEP8GraphKitP11PhaseValuesP4NodeS5_(ptr noundef nonnull align 8 dereferenceable(8) %0, ptr noundef %1, ptr noundef %2, ptr noundef %3, ptr noundef %4) #1 align 2 {
  %6 = alloca i1, align 1
  %7 = alloca ptr, align 8
  %8 = alloca ptr, align 8
  %9 = alloca ptr, align 8
  %10 = alloca ptr, align 8
  %11 = alloca ptr, align 8
  %12 = alloca i64, align 8
  %13 = alloca ptr, align 8
  %14 = alloca ptr, align 8
  %15 = alloca ptr, align 8
  %16 = alloca ptr, align 8
  %17 = alloca ptr, align 8
  store ptr %0, ptr %7, align 8
  store ptr %1, ptr %8, align 8
  store ptr %2, ptr %9, align 8
  store ptr %3, ptr %10, align 8
  store ptr %4, ptr %11, align 8
  store i64 0, ptr %12, align 8
  %18 = load ptr, ptr %11, align 8
  %19 = load ptr, ptr %9, align 8
  %20 = call noundef ptr @_ZN8AddPNode21Ideal_base_and_offsetEP4NodeP11PhaseValuesRl(ptr noundef %18, ptr noundef %19, ptr noundef nonnull align 8 dereferenceable(8) %12)
  store ptr %20, ptr %13, align 8
  %21 = load ptr, ptr %13, align 8
  %22 = call noundef ptr @_ZN12AllocateNode16Ideal_allocationEP4Node(ptr noundef %21)
  store ptr %22, ptr %14, align 8
  %23 = load i64, ptr %12, align 8
  %24 = icmp eq i64 %23, -2000000001
  br i1 %24, label %25, label %26

25:                                               ; preds = %5
  store i1 false, ptr %6, align 1
  br label %51

26:                                               ; preds = %5
  %27 = load ptr, ptr %14, align 8
  %28 = icmp eq ptr %27, null
  br i1 %28, label %29, label %30

29:                                               ; preds = %26
  store i1 false, ptr %6, align 1
  br label %51

30:                                               ; preds = %26
  %31 = load ptr, ptr %10, align 8
  %32 = call noundef ptr @_ZNK4Node2inEj(ptr noundef nonnull align 8 dereferenceable(52) %31, i32 noundef 0)
  store ptr %32, ptr %15, align 8
  %33 = load ptr, ptr %15, align 8
  %34 = call noundef zeroext i1 @_ZNK4Node7is_ProjEv(ptr noundef nonnull align 8 dereferenceable(52) %33)
  br i1 %34, label %35, label %50

35:                                               ; preds = %30
  %36 = load ptr, ptr %15, align 8
  %37 = call noundef ptr @_ZNK4Node2inEj(ptr noundef nonnull align 8 dereferenceable(52) %36, i32 noundef 0)
  %38 = call noundef zeroext i1 @_ZNK4Node13is_InitializeEv(ptr noundef nonnull align 8 dereferenceable(52) %37)
  br i1 %38, label %39, label %50

39:                                               ; preds = %35
  %40 = load ptr, ptr %15, align 8
  %41 = call noundef ptr @_ZNK4Node2inEj(ptr noundef nonnull align 8 dereferenceable(52) %40, i32 noundef 0)
  %42 = call noundef ptr @_ZNK4Node13as_InitializeEv(ptr noundef nonnull align 8 dereferenceable(52) %41)
  store ptr %42, ptr %16, align 8
  %43 = load ptr, ptr %16, align 8
  %44 = call noundef ptr @_ZN14InitializeNode10allocationEv(ptr noundef nonnull align 8 dereferenceable(73) %43)
  store ptr %44, ptr %17, align 8
  %45 = load ptr, ptr %14, align 8
  %46 = load ptr, ptr %17, align 8
  %47 = icmp eq ptr %45, %46
  br i1 %47, label %48, label %49

48:                                               ; preds = %39
  store i1 true, ptr %6, align 1
  br label %51

49:                                               ; preds = %39
  br label %50

50:                                               ; preds = %49, %35, %30
  store i1 false, ptr %6, align 1
  br label %51

51:                                               ; preds = %50, %48, %29, %25
  %52 = load i1, ptr %6, align 1
  ret i1 %52
}