; Function Attrs: mustprogress nounwind uwtable
define hidden noundef zeroext i1 @_ZNK14G1BarrierSetC226g1_can_remove_post_barrierEP8GraphKitP11PhaseValuesP4NodeS5_(ptr nocapture noundef nonnull readnone align 8 dereferenceable(8) %0, ptr nocapture noundef readnone %1, ptr noundef %2, ptr nocapture noundef readonly %3, ptr noundef %4) local_unnamed_addr #0 align 2 {
  %6 = alloca i64, align 8
  store i64 0, ptr %6, align 8
  %7 = call noundef ptr @_ZN8AddPNode21Ideal_base_and_offsetEP4NodeP11PhaseValuesRl(ptr noundef %4, ptr noundef %2, ptr noundef nonnull align 8 dereferenceable(8) %6) #6
  %8 = call noundef ptr @_ZN12AllocateNode16Ideal_allocationEP4Node(ptr noundef %7) #6
  %9 = load i64, ptr %6, align 8
  %10 = icmp eq i64 %9, -2000000001
  %11 = icmp eq ptr %8, null
  %or.cond = or i1 %11, %10
  br i1 %or.cond, label %32, label %12

12:                                               ; preds = %5
  %13 = getelementptr inbounds i8, ptr %3, i64 8
  %14 = load ptr, ptr %13, align 8
  %15 = load ptr, ptr %14, align 8
  %16 = getelementptr inbounds i8, ptr %15, i64 44
  %17 = load i32, ptr %16, align 4
  %18 = and i32 %17, 15
  %19 = icmp eq i32 %18, 8
  br i1 %19, label %20, label %31

20:                                               ; preds = %12
  %21 = getelementptr inbounds i8, ptr %15, i64 8
  %22 = load ptr, ptr %21, align 8
  %23 = load ptr, ptr %22, align 8
  %24 = getelementptr inbounds i8, ptr %23, i64 44
  %25 = load i32, ptr %24, align 4
  %26 = and i32 %25, 63
  %27 = icmp eq i32 %26, 49
  br i1 %27, label %28, label %31

28:                                               ; preds = %20
  %29 = call noundef ptr @_ZN14InitializeNode10allocationEv(ptr noundef nonnull align 8 dereferenceable(73) %23) #6
  %30 = icmp eq ptr %8, %29
  br i1 %30, label %32, label %31

31:                                               ; preds = %28, %20, %12
  br label %32

32:                                               ; preds = %28, %5, %31
  %.0 = phi i1 [ false, %31 ], [ false, %5 ], [ true, %28 ]
  ret i1 %.0
}